target datalayout = "e-m:e-p270:32:32-p271:32:32-p272:64:64-i64:64-i128:128-f80:128-n8:16:32:64-S128"
target triple = "x86_64-unknown-linux-gnu"

%"class.rocksdb::Random" = type { i32 }
%"class.rocksdb::JemallocNodumpAllocator" = type <{ %"class.rocksdb::BaseMemoryAllocator", %"struct.rocksdb::JemallocAllocatorOptions", %"class.std::vector.19", %"class.rocksdb::ThreadLocalPtr", [4 x i8], %"class.std::vector.24", i8, [7 x i8] }>
%"class.rocksdb::BaseMemoryAllocator" = type { %"class.rocksdb::MemoryAllocator" }
%"class.rocksdb::MemoryAllocator" = type { %"class.rocksdb::Customizable" }
%"class.rocksdb::Customizable" = type { %"class.rocksdb::Configurable" }
%"class.rocksdb::Configurable" = type { ptr, %"class.std::vector" }
%"class.std::vector" = type { %"struct.std::_Vector_base" }
%"struct.std::_Vector_base" = type { %"struct.std::_Vector_base<rocksdb::Configurable::RegisteredOptions, std::allocator<rocksdb::Configurable::RegisteredOptions>>::_Vector_impl" }
%"struct.std::_Vector_base<rocksdb::Configurable::RegisteredOptions, std::allocator<rocksdb::Configurable::RegisteredOptions>>::_Vector_impl" = type { %"struct.std::_Vector_base<rocksdb::Configurable::RegisteredOptions, std::allocator<rocksdb::Configurable::RegisteredOptions>>::_Vector_impl_data" }
%"struct.std::_Vector_base<rocksdb::Configurable::RegisteredOptions, std::allocator<rocksdb::Configurable::RegisteredOptions>>::_Vector_impl_data" = type { ptr, ptr, ptr }
%"struct.rocksdb::JemallocAllocatorOptions" = type { i8, i64, i64, i64 }
%"class.std::vector.19" = type { %"struct.std::_Vector_base.20" }
%"struct.std::_Vector_base.20" = type { %"struct.std::_Vector_base<std::unique_ptr<extent_hooks_s>, std::allocator<std::unique_ptr<extent_hooks_s>>>::_Vector_impl" }
%"struct.std::_Vector_base<std::unique_ptr<extent_hooks_s>, std::allocator<std::unique_ptr<extent_hooks_s>>>::_Vector_impl" = type { %"struct.std::_Vector_base<std::unique_ptr<extent_hooks_s>, std::allocator<std::unique_ptr<extent_hooks_s>>>::_Vector_impl_data" }
%"struct.std::_Vector_base<std::unique_ptr<extent_hooks_s>, std::allocator<std::unique_ptr<extent_hooks_s>>>::_Vector_impl_data" = type { ptr, ptr, ptr }
%"class.rocksdb::ThreadLocalPtr" = type { i32 }
%"class.std::vector.24" = type { %"struct.std::_Vector_base.25" }
%"struct.std::_Vector_base.25" = type { %"struct.std::_Vector_base<unsigned int, std::allocator<unsigned int>>::_Vector_impl" }
%"struct.std::_Vector_base<unsigned int, std::allocator<unsigned int>>::_Vector_impl" = type { %"struct.std::_Vector_base<unsigned int, std::allocator<unsigned int>>::_Vector_impl_data" }
%"struct.std::_Vector_base<unsigned int, std::allocator<unsigned int>>::_Vector_impl_data" = type { ptr, ptr, ptr }

@_ZZNK7rocksdb23JemallocNodumpAllocator13GetArenaIndexEvE9next_seed = internal global { i32 } zeroinitializer, align 4
@_ZZNK7rocksdb23JemallocNodumpAllocator13GetArenaIndexEvE9tl_random = internal thread_local global %"class.rocksdb::Random" zeroinitializer, align 4
@_ZGVZNK7rocksdb23JemallocNodumpAllocator13GetArenaIndexEvE9tl_random = internal thread_local global i8 0, align 1

; Function Attrs: mustprogress nounwind uwtable
define linkonce_odr noundef i32 @_ZN7rocksdb6detail20FastRangeGenericImplIjjE2FnEjj(i32 noundef %hash, i32 noundef %range) #3 comdat align 2 {
entry:
  %hash.addr = alloca i32, align 4
  %range.addr = alloca i32, align 4
  %product = alloca i64, align 8
  store i32 %hash, ptr %hash.addr, align 4
  store i32 %range, ptr %range.addr, align 4
  %0 = load i32, ptr %range.addr, align 4
  %conv = zext i32 %0 to i64
  %1 = load i32, ptr %hash.addr, align 4
  %conv1 = zext i32 %1 to i64
  %mul = mul i64 %conv, %conv1
  store i64 %mul, ptr %product, align 8
  %2 = load i64, ptr %product, align 8
  %shr = lshr i64 %2, 32
  %conv2 = trunc i64 %shr to i32
  ret i32 %conv2
}

; Function Attrs: mustprogress uwtable
define linkonce_odr noundef i32 @_ZN7rocksdb16FastRangeGenericIjjEET0_T_S1_(i32 noundef %hash, i32 noundef %range) #2 comdat {
entry:
  %hash.addr = alloca i32, align 4
  %range.addr = alloca i32, align 4
  store i32 %hash, ptr %hash.addr, align 4
  store i32 %range, ptr %range.addr, align 4
  %0 = load i32, ptr %hash.addr, align 4
  %1 = load i32, ptr %range.addr, align 4
  %call = call noundef i32 @_ZN7rocksdb6detail20FastRangeGenericImplIjjE2FnEjj(i32 noundef %0, i32 noundef %1)
  ret i32 %call
}

; Function Attrs: mustprogress nounwind uwtable
define linkonce_odr noundef i32 @_ZN7rocksdb6Random8GoodSeedEj(i32 noundef %s) #3 comdat align 2 {
entry:
  %s.addr = alloca i32, align 4
  store i32 %s, ptr %s.addr, align 4
  %0 = load i32, ptr %s.addr, align 4
  %and = and i32 %0, 2147483647
  %cmp = icmp ne i32 %and, 0
  br i1 %cmp, label %cond.true, label %cond.false

cond.true:                                        ; preds = %entry
  %1 = load i32, ptr %s.addr, align 4
  %and1 = and i32 %1, 2147483647
  br label %cond.end

cond.false:                                       ; preds = %entry
  br label %cond.end

cond.end:                                         ; preds = %cond.false, %cond.true
  %cond = phi i32 [ %and1, %cond.true ], [ 1, %cond.false ]
  ret i32 %cond
}

; Function Attrs: mustprogress uwtable
define linkonce_odr noundef i32 @_ZN7rocksdb11FastRange32Ejj(i32 noundef %hash, i32 noundef %range) #2 comdat {
entry:
  %hash.addr = alloca i32, align 4
  %range.addr = alloca i32, align 4
  store i32 %hash, ptr %hash.addr, align 4
  store i32 %range, ptr %range.addr, align 4
  %0 = load i32, ptr %hash.addr, align 4
  %1 = load i32, ptr %range.addr, align 4
  %call = call noundef i32 @_ZN7rocksdb16FastRangeGenericIjjEET0_T_S1_(i32 noundef %0, i32 noundef %1)
  ret i32 %call
}

; Function Attrs: mustprogress nounwind uwtable
define linkonce_odr noundef i32 @_ZN7rocksdb6Random4NextEv(ptr noundef nonnull align 4 dereferenceable(4) %this) #3 comdat align 2 {
entry:
  %this.addr = alloca ptr, align 8
  %product = alloca i64, align 8
  store ptr %this, ptr %this.addr, align 8
  %this1 = load ptr, ptr %this.addr, align 8
  %seed_ = getelementptr inbounds %"class.rocksdb::Random", ptr %this1, i32 0, i32 0
  %0 = load i32, ptr %seed_, align 4
  %conv = zext i32 %0 to i64
  %mul = mul i64 %conv, 16807
  store i64 %mul, ptr %product, align 8
  %1 = load i64, ptr %product, align 8
  %shr = lshr i64 %1, 31
  %2 = load i64, ptr %product, align 8
  %and = and i64 %2, 2147483647
  %add = add i64 %shr, %and
  %conv2 = trunc i64 %add to i32
  %seed_3 = getelementptr inbounds %"class.rocksdb::Random", ptr %this1, i32 0, i32 0
  store i32 %conv2, ptr %seed_3, align 4
  %seed_4 = getelementptr inbounds %"class.rocksdb::Random", ptr %this1, i32 0, i32 0
  %3 = load i32, ptr %seed_4, align 4
  %cmp = icmp ugt i32 %3, 2147483647
  br i1 %cmp, label %if.then, label %if.end

if.then:                                          ; preds = %entry
  %seed_5 = getelementptr inbounds %"class.rocksdb::Random", ptr %this1, i32 0, i32 0
  %4 = load i32, ptr %seed_5, align 4
  %sub = sub i32 %4, 2147483647
  store i32 %sub, ptr %seed_5, align 4
  br label %if.end

if.end:                                           ; preds = %if.then, %entry
  %seed_6 = getelementptr inbounds %"class.rocksdb::Random", ptr %this1, i32 0, i32 0
  %5 = load i32, ptr %seed_6, align 4
  ret i32 %5
}

; Function Attrs: mustprogress uwtable
define linkonce_odr void @_ZN7rocksdb6RandomC2Ej(ptr noundef nonnull align 4 dereferenceable(4) %this, i32 noundef %s) unnamed_addr #2 comdat align 2 {
entry:
  %this.addr = alloca ptr, align 8
  %s.addr = alloca i32, align 4
  store ptr %this, ptr %this.addr, align 8
  store i32 %s, ptr %s.addr, align 4
  %this1 = load ptr, ptr %this.addr, align 8
  %seed_ = getelementptr inbounds %"class.rocksdb::Random", ptr %this1, i32 0, i32 0
  %0 = load i32, ptr %s.addr, align 4
  %call = call noundef i32 @_ZN7rocksdb6Random8GoodSeedEj(i32 noundef %0)
  store i32 %call, ptr %seed_, align 4
  ret void
}

; Function Attrs: mustprogress nounwind uwtable
define linkonce_odr noundef nonnull align 4 dereferenceable(4) ptr @_ZNKSt6vectorIjSaIjEEixEm(ptr noundef nonnull align 8 dereferenceable(24) %this, i64 noundef %__n) #3 comdat align 2 {
entry:
  %this.addr = alloca ptr, align 8
  %__n.addr = alloca i64, align 8
  store ptr %this, ptr %this.addr, align 8
  store i64 %__n, ptr %__n.addr, align 8
  %this1 = load ptr, ptr %this.addr, align 8
  %_M_impl = getelementptr inbounds %"struct.std::_Vector_base.25", ptr %this1, i32 0, i32 0
  %_M_start = getelementptr inbounds %"struct.std::_Vector_base<unsigned int, std::allocator<unsigned int>>::_Vector_impl_data", ptr %_M_impl, i32 0, i32 0
  %0 = load ptr, ptr %_M_start, align 8
  %1 = load i64, ptr %__n.addr, align 8
  %add.ptr = getelementptr inbounds i32, ptr %0, i64 %1
  ret ptr %add.ptr
}

; Function Attrs: mustprogress nounwind uwtable
define linkonce_odr noundef i64 @_ZNKSt6vectorIjSaIjEE4sizeEv(ptr noundef nonnull align 8 dereferenceable(24) %this) #3 comdat align 2 {
entry:
  %this.addr = alloca ptr, align 8
  store ptr %this, ptr %this.addr, align 8
  %this1 = load ptr, ptr %this.addr, align 8
  %_M_impl = getelementptr inbounds %"struct.std::_Vector_base.25", ptr %this1, i32 0, i32 0
  %_M_finish = getelementptr inbounds %"struct.std::_Vector_base<unsigned int, std::allocator<unsigned int>>::_Vector_impl_data", ptr %_M_impl, i32 0, i32 1
  %0 = load ptr, ptr %_M_finish, align 8
  %_M_impl2 = getelementptr inbounds %"struct.std::_Vector_base.25", ptr %this1, i32 0, i32 0
  %_M_start = getelementptr inbounds %"struct.std::_Vector_base<unsigned int, std::allocator<unsigned int>>::_Vector_impl_data", ptr %_M_impl2, i32 0, i32 0
  %1 = load ptr, ptr %_M_start, align 8
  %sub.ptr.lhs.cast = ptrtoint ptr %0 to i64
  %sub.ptr.rhs.cast = ptrtoint ptr %1 to i64
  %sub.ptr.sub = sub i64 %sub.ptr.lhs.cast, %sub.ptr.rhs.cast
  %sub.ptr.div = sdiv exact i64 %sub.ptr.sub, 4
  ret i64 %sub.ptr.div
}

; Function Attrs: mustprogress uwtable
define noundef i32 @_ZNK7rocksdb23JemallocNodumpAllocator13GetArenaIndexEv(ptr noundef nonnull align 8 dereferenceable(121) %this) #2 align 2 {
entry:
  %this.addr.i = alloca ptr, align 8
  %__i.addr.i = alloca i32, align 4
  %__m.addr.i = alloca i32, align 4
  %.atomictmp.i = alloca i32, align 4
  %atomic-temp.i = alloca i32, align 4
  %retval = alloca i32, align 4
  %this.addr = alloca ptr, align 8
  store ptr %this, ptr %this.addr, align 8
  %this1 = load ptr, ptr %this.addr, align 8
  %arena_indexes_ = getelementptr inbounds %"class.rocksdb::JemallocNodumpAllocator", ptr %this1, i32 0, i32 5
  %call = call noundef i64 @_ZNKSt6vectorIjSaIjEE4sizeEv(ptr noundef nonnull align 8 dereferenceable(24) %arena_indexes_) #4
  %cmp = icmp eq i64 %call, 1
  br i1 %cmp, label %if.then, label %if.end

if.then:                                          ; preds = %entry
  %arena_indexes_2 = getelementptr inbounds %"class.rocksdb::JemallocNodumpAllocator", ptr %this1, i32 0, i32 5
  %call3 = call noundef nonnull align 4 dereferenceable(4) ptr @_ZNKSt6vectorIjSaIjEEixEm(ptr noundef nonnull align 8 dereferenceable(24) %arena_indexes_2, i64 noundef 0) #4
  %0 = load i32, ptr %call3, align 4
  store i32 %0, ptr %retval, align 4
  br label %return

if.end:                                           ; preds = %entry
  %1 = load i8, ptr @_ZGVZNK7rocksdb23JemallocNodumpAllocator13GetArenaIndexEvE9tl_random, align 1
  %guard.uninitialized = icmp eq i8 %1, 0
  br i1 %guard.uninitialized, label %init.check, label %init.end, !prof !5

init.check:                                       ; preds = %if.end
  store ptr @_ZZNK7rocksdb23JemallocNodumpAllocator13GetArenaIndexEvE9next_seed, ptr %this.addr.i, align 8
  store i32 1, ptr %__i.addr.i, align 4
  store i32 5, ptr %__m.addr.i, align 4
  %this1.i = load ptr, ptr %this.addr.i, align 8
  %2 = load i32, ptr %__m.addr.i, align 4
  %3 = load i32, ptr %__i.addr.i, align 4
  store i32 %3, ptr %.atomictmp.i, align 4
  switch i32 %2, label %monotonic.i [
    i32 1, label %acquire.i
    i32 2, label %acquire.i
    i32 3, label %release.i
    i32 4, label %acqrel.i
    i32 5, label %seqcst.i
  ]

monotonic.i:                                      ; preds = %init.check
  %4 = load i32, ptr %.atomictmp.i, align 4
  %5 = atomicrmw add ptr %this1.i, i32 %4 monotonic, align 4
  store i32 %5, ptr %atomic-temp.i, align 4
  br label %_ZNSt13__atomic_baseIjE9fetch_addEjSt12memory_order.exit

acquire.i:                                        ; preds = %init.check, %init.check
  %6 = load i32, ptr %.atomictmp.i, align 4
  %7 = atomicrmw add ptr %this1.i, i32 %6 acquire, align 4
  store i32 %7, ptr %atomic-temp.i, align 4
  br label %_ZNSt13__atomic_baseIjE9fetch_addEjSt12memory_order.exit

release.i:                                        ; preds = %init.check
  %8 = load i32, ptr %.atomictmp.i, align 4
  %9 = atomicrmw add ptr %this1.i, i32 %8 release, align 4
  store i32 %9, ptr %atomic-temp.i, align 4
  br label %_ZNSt13__atomic_baseIjE9fetch_addEjSt12memory_order.exit

acqrel.i:                                         ; preds = %init.check
  %10 = load i32, ptr %.atomictmp.i, align 4
  %11 = atomicrmw add ptr %this1.i, i32 %10 acq_rel, align 4
  store i32 %11, ptr %atomic-temp.i, align 4
  br label %_ZNSt13__atomic_baseIjE9fetch_addEjSt12memory_order.exit

seqcst.i:                                         ; preds = %init.check
  %12 = load i32, ptr %.atomictmp.i, align 4
  %13 = atomicrmw add ptr %this1.i, i32 %12 seq_cst, align 4
  store i32 %13, ptr %atomic-temp.i, align 4
  br label %_ZNSt13__atomic_baseIjE9fetch_addEjSt12memory_order.exit

_ZNSt13__atomic_baseIjE9fetch_addEjSt12memory_order.exit: ; preds = %seqcst.i, %acqrel.i, %release.i, %acquire.i, %monotonic.i
  %14 = load i32, ptr %atomic-temp.i, align 4
  call void @_ZN7rocksdb6RandomC2Ej(ptr noundef nonnull align 4 dereferenceable(4) @_ZZNK7rocksdb23JemallocNodumpAllocator13GetArenaIndexEvE9tl_random, i32 noundef %14)
  store i8 1, ptr @_ZGVZNK7rocksdb23JemallocNodumpAllocator13GetArenaIndexEvE9tl_random, align 1
  br label %init.end

init.end:                                         ; preds = %_ZNSt13__atomic_baseIjE9fetch_addEjSt12memory_order.exit, %if.end
  %arena_indexes_5 = getelementptr inbounds %"class.rocksdb::JemallocNodumpAllocator", ptr %this1, i32 0, i32 5
  %15 = call align 4 ptr @llvm.threadlocal.address.p0(ptr align 4 @_ZZNK7rocksdb23JemallocNodumpAllocator13GetArenaIndexEvE9tl_random)
  %call6 = call noundef i32 @_ZN7rocksdb6Random4NextEv(ptr noundef nonnull align 4 dereferenceable(4) %15)
  %arena_indexes_7 = getelementptr inbounds %"class.rocksdb::JemallocNodumpAllocator", ptr %this1, i32 0, i32 5
  %call8 = call noundef i64 @_ZNKSt6vectorIjSaIjEE4sizeEv(ptr noundef nonnull align 8 dereferenceable(24) %arena_indexes_7) #4
  %conv = trunc i64 %call8 to i32
  %call9 = call noundef i32 @_ZN7rocksdb11FastRange32Ejj(i32 noundef %call6, i32 noundef %conv)
  %conv10 = zext i32 %call9 to i64
  %call11 = call noundef nonnull align 4 dereferenceable(4) ptr @_ZNKSt6vectorIjSaIjEEixEm(ptr noundef nonnull align 8 dereferenceable(24) %arena_indexes_5, i64 noundef %conv10) #4
  %16 = load i32, ptr %call11, align 4
  store i32 %16, ptr %retval, align 4
  br label %return

return:                                           ; preds = %init.end, %if.then
  %17 = load i32, ptr %retval, align 4
  ret i32 %17
}

; Function Attrs: mustprogress uwtable
define noundef ptr @_ZN7rocksdb23JemallocNodumpAllocator8AllocateEm(ptr noundef nonnull align 8 dereferenceable(121) %this, i64 noundef %size) unnamed_addr #2 align 2 {
entry:
  %this.addr = alloca ptr, align 8
  %size.addr = alloca i64, align 8
  %tcache_flag = alloca i32, align 4
  %arena_index = alloca i32, align 4
  store ptr %this, ptr %this.addr, align 8
  store i64 %size, ptr %size.addr, align 8
  %this1 = load ptr, ptr %this.addr, align 8
  %0 = load i64, ptr %size.addr, align 8
  %call = call noundef i32 @_ZN7rocksdb23JemallocNodumpAllocator22GetThreadSpecificCacheEm(ptr noundef nonnull align 8 dereferenceable(121) %this1, i64 noundef %0)
  store i32 %call, ptr %tcache_flag, align 4
  %call2 = call noundef i32 @_ZNK7rocksdb23JemallocNodumpAllocator13GetArenaIndexEv(ptr noundef nonnull align 8 dereferenceable(121) %this1)
  store i32 %call2, ptr %arena_index, align 4
  %1 = load i64, ptr %size.addr, align 8
  %2 = load i32, ptr %arena_index, align 4
  %add = add nsw i32 %2, 1
  %shl = shl i32 %add, 20
  %3 = load i32, ptr %tcache_flag, align 4
  %or = or i32 %shl, %3
  %call3 = call noalias ptr @mallocx(i64 noundef %1, i32 noundef %or) #20
  ret ptr %call3
}