; Function Attrs: mustprogress uwtable
define noalias noundef ptr @_ZN7rocksdb23JemallocNodumpAllocator8AllocateEm(ptr noundef nonnull align 8 dereferenceable(121) %this, i64 noundef %size) unnamed_addr #1 align 2 {
entry:
  %call = tail call noundef i32 @_ZN7rocksdb23JemallocNodumpAllocator22GetThreadSpecificCacheEm(ptr noundef nonnull align 8 dereferenceable(121) %this, i64 noundef %size), !range !15
  %arena_indexes_.i = getelementptr inbounds i8, ptr %this, i64 96
  %_M_finish.i.i = getelementptr inbounds i8, ptr %this, i64 104
  %0 = load ptr, ptr %_M_finish.i.i, align 8
  %1 = load ptr, ptr %arena_indexes_.i, align 8
  %sub.ptr.lhs.cast.i.i = ptrtoint ptr %0 to i64
  %sub.ptr.rhs.cast.i.i = ptrtoint ptr %1 to i64
  %sub.ptr.sub.i.i = sub i64 %sub.ptr.lhs.cast.i.i, %sub.ptr.rhs.cast.i.i
  %cmp.i = icmp eq i64 %sub.ptr.sub.i.i, 4
  br i1 %cmp.i, label %_ZNK7rocksdb23JemallocNodumpAllocator13GetArenaIndexEv.exit, label %if.end.i

if.end.i:                                         ; preds = %entry
  %.b.i = load i1, ptr @_ZGVZNK7rocksdb23JemallocNodumpAllocator13GetArenaIndexEvE9tl_random, align 1
  br i1 %.b.i, label %init.end.i, label %seqcst.i.i, !prof !16

seqcst.i.i:                                       ; preds = %if.end.i
  %2 = atomicrmw add ptr @_ZZNK7rocksdb23JemallocNodumpAllocator13GetArenaIndexEvE9next_seed, i32 1 seq_cst, align 4
  %and.i.i.i = and i32 %2, 2147483647
  %cond.i.i.i = tail call noundef i32 @llvm.umax.i32(i32 %and.i.i.i, i32 1)
  store i32 %cond.i.i.i, ptr @_ZZNK7rocksdb23JemallocNodumpAllocator13GetArenaIndexEvE9tl_random, align 4
  store i1 true, ptr @_ZGVZNK7rocksdb23JemallocNodumpAllocator13GetArenaIndexEvE9tl_random, align 1
  br label %init.end.i

init.end.i:                                       ; preds = %seqcst.i.i, %if.end.i
  %3 = tail call align 4 ptr @llvm.threadlocal.address.p0(ptr align 4 @_ZZNK7rocksdb23JemallocNodumpAllocator13GetArenaIndexEvE9tl_random)
  %4 = load i32, ptr %3, align 4
  %conv.i.i = zext i32 %4 to i64
  %mul.i.i = mul nuw nsw i64 %conv.i.i, 16807
  %shr.i.i = lshr i64 %mul.i.i, 31
  %and.i.i = and i64 %mul.i.i, 2147483647
  %add.i.i = add nuw nsw i64 %shr.i.i, %and.i.i
  %conv2.i.i = trunc i64 %add.i.i to i32
  %cmp.i.i = icmp slt i32 %conv2.i.i, 0
  %sub.i.i = add i32 %conv2.i.i, -2147483647
  %spec.select.i.i = select i1 %cmp.i.i, i32 %sub.i.i, i32 %conv2.i.i
  store i32 %spec.select.i.i, ptr %3, align 4
  %5 = load ptr, ptr %_M_finish.i.i, align 8
  %6 = load ptr, ptr %arena_indexes_.i, align 8
  %sub.ptr.lhs.cast.i6.i = ptrtoint ptr %5 to i64
  %sub.ptr.rhs.cast.i7.i = ptrtoint ptr %6 to i64
  %sub.ptr.sub.i8.i = sub i64 %sub.ptr.lhs.cast.i6.i, %sub.ptr.rhs.cast.i7.i
  %sub.ptr.div.i9.i = lshr exact i64 %sub.ptr.sub.i8.i, 2
  %conv.i.i.i.i = and i64 %sub.ptr.div.i9.i, 4294967295
  %conv1.i.i.i.i = zext i32 %spec.select.i.i to i64
  %mul.i.i.i.i = mul nuw i64 %conv.i.i.i.i, %conv1.i.i.i.i
  %shr.i.i.i.i = lshr i64 %mul.i.i.i.i, 32
  %add.ptr.i.i = getelementptr inbounds i32, ptr %6, i64 %shr.i.i.i.i
  br label %_ZNK7rocksdb23JemallocNodumpAllocator13GetArenaIndexEv.exit

_ZNK7rocksdb23JemallocNodumpAllocator13GetArenaIndexEv.exit: ; preds = %entry, %init.end.i
  %retval.0.in.i = phi ptr [ %add.ptr.i.i, %init.end.i ], [ %1, %entry ]
  %retval.0.i = load i32, ptr %retval.0.in.i, align 4
  %add = shl i32 %retval.0.i, 20
  %shl = add i32 %add, 1048576
  %or = or i32 %shl, %call
  %call3 = tail call noalias ptr @mallocx(i64 noundef %size, i32 noundef %or) #27
  ret ptr %call3
}